Certificate:
    Data:
        Version: 3 (0x2)
        Serial Number: 1 (0x1)
    Signature Algorithm: sha256WithRSAEncryption
        Issuer: CN=oai-hss.oai.svc.cluster.local, C=FR, ST=PACA, L=Aix, O=Eurecom, OU=CM
        Validity
            Not Before: Feb 18 03:31:22 2020 GMT
            Not After : Feb 17 03:31:22 2021 GMT
        Subject: C=FR, ST=PACA, O=Eurecom, OU=CM, CN=oai-hss.oai.svc.cluster.local
        Subject Public Key Info:
            Public Key Algorithm: rsaEncryption
                Public-Key: (1024 bit)
                Modulus:
                    00:eb:25:f4:27:8b:e0:ef:db:5d:e8:53:46:cd:04:
                    b2:40:74:72:68:bd:d5:00:c3:52:34:8c:f7:61:92:
                    ee:ed:81:04:b6:e8:2c:f4:77:c3:e8:13:1a:8e:38:
                    96:72:c3:97:ae:69:a1:72:a8:b4:9c:dd:a9:91:63:
                    05:92:a3:de:ed:d4:4d:19:dc:85:e8:99:4e:f6:c5:
                    5b:30:f0:e7:52:08:66:a9:a8:00:83:71:a0:09:d8:
                    7c:21:9d:19:4f:3b:89:42:e2:e0:38:9e:f2:a0:ab:
                    87:8f:3b:99:9a:a4:75:ec:28:52:57:3d:27:58:6c:
                    ef:b8:23:55:26:ab:6a:87:43
                Exponent: 65537 (0x10001)
        X509v3 extensions:
            X509v3 Basic Constraints: 
                CA:FALSE
            Netscape Comment: 
                OpenSSL Generated Certificate
            X509v3 Subject Key Identifier: 
                39:8D:98:88:BE:23:BF:9E:D9:CE:AD:F5:F3:B4:22:13:33:9F:57:06
            X509v3 Authority Key Identifier: 
                keyid:F8:B7:EE:10:D0:8D:C7:26:9A:8F:FF:5E:C5:F7:EC:61:69:F4:84:DD

    Signature Algorithm: sha256WithRSAEncryption
         71:7f:17:34:80:a5:dc:6c:06:98:33:28:ed:de:c4:e8:b7:1d:
         92:d9:12:80:05:20:a6:d7:02:84:56:b5:58:4a:bf:ae:85:17:
         c6:f9:3c:67:49:cd:e9:8a:cf:1d:3f:00:fb:05:1e:02:05:4e:
         78:40:0b:0d:78:ab:6c:1a:4b:3a:bc:41:43:12:25:4f:7a:fe:
         9b:17:c7:5a:a6:c0:17:c6:a2:4e:9f:0c:b9:e7:27:20:44:c9:
         bf:e3:93:18:a4:c7:33:85:32:fc:70:d9:db:76:f4:fd:76:7a:
         aa:39:a3:9f:6c:76:98:2f:80:c3:74:34:4d:88:b1:78:06:57:
         41:4b
-----BEGIN CERTIFICATE-----
MIICxTCCAi6gAwIBAgIBATANBgkqhkiG9w0BAQsFADBxMSYwJAYDVQQDDB1vYWkt
aHNzLm9haS5zdmMuY2x1c3Rlci5sb2NhbDELMAkGA1UEBhMCRlIxDTALBgNVBAgM
BFBBQ0ExDDAKBgNVBAcMA0FpeDEQMA4GA1UECgwHRXVyZWNvbTELMAkGA1UECwwC
Q00wHhcNMjAwMjE4MDMzMTIyWhcNMjEwMjE3MDMzMTIyWjBjMQswCQYDVQQGEwJG
UjENMAsGA1UECAwEUEFDQTEQMA4GA1UECgwHRXVyZWNvbTELMAkGA1UECwwCQ00x
JjAkBgNVBAMMHW9haS1oc3Mub2FpLnN2Yy5jbHVzdGVyLmxvY2FsMIGfMA0GCSqG
SIb3DQEBAQUAA4GNADCBiQKBgQDrJfQni+Dv213oU0bNBLJAdHJovdUAw1I0jPdh
ku7tgQS26Cz0d8PoExqOOJZyw5euaaFyqLSc3amRYwWSo97t1E0Z3IXomU72xVsw
8OdSCGapqACDcaAJ2HwhnRlPO4lC4uA4nvKgq4ePO5mapHXsKFJXPSdYbO+4I1Um
q2qHQwIDAQABo3sweTAJBgNVHRMEAjAAMCwGCWCGSAGG+EIBDQQfFh1PcGVuU1NM
IEdlbmVyYXRlZCBDZXJ0aWZpY2F0ZTAdBgNVHQ4EFgQUOY2YiL4jv57Zzq3187Qi
EzOfVwYwHwYDVR0jBBgwFoAU+LfuENCNxyaaj/9exffsYWn0hN0wDQYJKoZIhvcN
AQELBQADgYEAcX8XNICl3GwGmDMo7d7E6LcdktkSgAUgptcChFa1WEq/roUXxvk8
Z0nN6YrPHT8A+wUeAgVOeEALDXirbBpLOrxBQxIlT3r+mxfHWqbAF8aiTp8Muecn
IETJv+OTGKTHM4Uy/HDZ23b0/XZ6qjmjn2x2mC+Aw3Q0TYixeAZXQUs=
-----END CERTIFICATE-----
