Certificate:
    Data:
        Version: 3 (0x2)
        Serial Number: 1 (0x1)
    Signature Algorithm: sha256WithRSAEncryption
        Issuer: CN=oai-mme.oai.svc.cluster.local, C=FR, ST=PACA, L=Aix, O=Eurecom, OU=CM
        Validity
            Not Before: Feb 18 03:31:34 2020 GMT
            Not After : Feb 17 03:31:34 2021 GMT
        Subject: C=FR, ST=PACA, O=Eurecom, OU=CM, CN=oai-mme.oai.svc.cluster.local
        Subject Public Key Info:
            Public Key Algorithm: rsaEncryption
                Public-Key: (1024 bit)
                Modulus:
                    00:d2:14:fc:b1:4b:97:7a:b7:80:b8:ce:80:d0:f7:
                    22:0f:df:b0:db:4f:b2:98:0d:d6:b5:6d:8a:77:04:
                    63:31:7e:2d:fc:13:29:aa:5b:0f:9b:85:ee:bf:c3:
                    62:9b:36:d7:09:44:6c:3e:41:d2:53:33:9b:8b:1d:
                    c6:1c:e4:e8:40:6e:e2:d6:fc:b0:e1:88:88:a8:72:
                    c0:91:68:36:20:0c:73:11:e3:15:91:1d:b6:bf:b1:
                    a6:d9:d1:a3:14:4d:55:10:94:37:71:fe:4d:7e:91:
                    a4:74:f0:4b:70:55:42:2c:3e:64:62:b8:0e:62:e1:
                    5f:e1:df:b0:6e:b2:20:bd:59
                Exponent: 65537 (0x10001)
        X509v3 extensions:
            X509v3 Basic Constraints: 
                CA:FALSE
            Netscape Comment: 
                OpenSSL Generated Certificate
            X509v3 Subject Key Identifier: 
                A5:FF:55:D3:1C:D7:C0:C2:0A:C1:57:B5:E8:2E:14:0A:47:C4:5F:E6
            X509v3 Authority Key Identifier: 
                keyid:5C:63:62:EC:A2:63:24:C7:AF:06:33:3F:4B:67:DC:39:31:0B:FD:A7

    Signature Algorithm: sha256WithRSAEncryption
         97:7b:50:87:fc:55:82:a4:5d:ed:87:c3:92:ba:69:12:e3:c8:
         8c:1b:93:78:54:56:47:c6:81:ee:50:5d:b3:73:3d:83:4c:80:
         b7:7b:6b:be:3c:7c:ea:2f:4b:14:91:c0:3d:d5:96:80:56:3c:
         2b:49:83:20:bc:18:a2:fe:08:f8:f3:3a:1c:3a:32:d1:12:d5:
         bc:67:c8:15:6e:45:10:9d:ce:7e:77:ea:bb:c1:a2:5c:94:22:
         8c:10:8e:95:1f:e4:da:db:b2:dc:ae:06:11:ab:f3:6c:dc:fc:
         94:98:1e:e9:3c:62:18:7d:3e:02:6d:8e:f7:4b:48:06:c2:60:
         ef:66
-----BEGIN CERTIFICATE-----
MIICxTCCAi6gAwIBAgIBATANBgkqhkiG9w0BAQsFADBxMSYwJAYDVQQDDB1vYWkt
bW1lLm9haS5zdmMuY2x1c3Rlci5sb2NhbDELMAkGA1UEBhMCRlIxDTALBgNVBAgM
BFBBQ0ExDDAKBgNVBAcMA0FpeDEQMA4GA1UECgwHRXVyZWNvbTELMAkGA1UECwwC
Q00wHhcNMjAwMjE4MDMzMTM0WhcNMjEwMjE3MDMzMTM0WjBjMQswCQYDVQQGEwJG
UjENMAsGA1UECAwEUEFDQTEQMA4GA1UECgwHRXVyZWNvbTELMAkGA1UECwwCQ00x
JjAkBgNVBAMMHW9haS1tbWUub2FpLnN2Yy5jbHVzdGVyLmxvY2FsMIGfMA0GCSqG
SIb3DQEBAQUAA4GNADCBiQKBgQDSFPyxS5d6t4C4zoDQ9yIP37DbT7KYDda1bYp3
BGMxfi38EymqWw+bhe6/w2KbNtcJRGw+QdJTM5uLHcYc5OhAbuLW/LDhiIiocsCR
aDYgDHMR4xWRHba/sabZ0aMUTVUQlDdx/k1+kaR08EtwVUIsPmRiuA5i4V/h37Bu
siC9WQIDAQABo3sweTAJBgNVHRMEAjAAMCwGCWCGSAGG+EIBDQQfFh1PcGVuU1NM
IEdlbmVyYXRlZCBDZXJ0aWZpY2F0ZTAdBgNVHQ4EFgQUpf9V0xzXwMIKwVe16C4U
CkfEX+YwHwYDVR0jBBgwFoAUXGNi7KJjJMevBjM/S2fcOTEL/acwDQYJKoZIhvcN
AQELBQADgYEAl3tQh/xVgqRd7YfDkrppEuPIjBuTeFRWR8aB7lBds3M9g0yAt3tr
vjx86i9LFJHAPdWWgFY8K0mDILwYov4I+PM6HDoy0RLVvGfIFW5FEJ3Ofnfqu8Gi
XJQijBCOlR/k2tuy3K4GEavzbNz8lJge6TxiGH0+Am2O90tIBsJg72Y=
-----END CERTIFICATE-----
